; ModuleID = '9/130.c'
source_filename = "9/130.c"
target datalayout = "e-m:e-p270:32:32-p271:32:32-p272:64:64-i64:64-f80:128-n8:16:32:64-S128"
target triple = "x86_64-pc-linux-gnu"

@.str = private unnamed_addr constant [3 x i8] c"%d\00", align 1
@.str.1 = private unnamed_addr constant [6 x i8] c"%s %d\00", align 1
@.str.2 = private unnamed_addr constant [4 x i8] c"%s\0A\00", align 1

; Function Attrs: noinline nounwind uwtable
define dso_local i32 @main() #0 {
  %1 = alloca i32, align 4
  %2 = alloca i32, align 4
  %3 = alloca [100 x i32], align 16
  %4 = alloca [100 x i32], align 16
  %5 = alloca i32, align 4
  %6 = alloca i32, align 4
  %7 = alloca i32, align 4
  %8 = alloca i32, align 4
  %9 = alloca [100 x [10 x i8]], align 16
  %10 = alloca [100 x [10 x i8]], align 16
  %11 = alloca [10 x i8], align 1
  store i32 0, i32* %1, align 4
  store i32 0, i32* %6, align 4
  %12 = call i32 (i8*, ...) @__isoc99_scanf(i8* getelementptr inbounds ([3 x i8], [3 x i8]* @.str, i64 0, i64 0), i32* %2)
  store i32 0, i32* %5, align 4
  br label %13

13:                                               ; preds = %26, %0
  %14 = load i32, i32* %5, align 4
  %15 = load i32, i32* %2, align 4
  %16 = icmp slt i32 %14, %15
  br i1 %16, label %17, label %29

17:                                               ; preds = %13
  %18 = load i32, i32* %5, align 4
  %19 = sext i32 %18 to i64
  %20 = getelementptr inbounds [100 x [10 x i8]], [100 x [10 x i8]]* %9, i64 0, i64 %19
  %21 = getelementptr inbounds [10 x i8], [10 x i8]* %20, i64 0, i64 0
  %22 = load i32, i32* %5, align 4
  %23 = sext i32 %22 to i64
  %24 = getelementptr inbounds [100 x i32], [100 x i32]* %3, i64 0, i64 %23
  %25 = call i32 (i8*, ...) @__isoc99_scanf(i8* getelementptr inbounds ([6 x i8], [6 x i8]* @.str.1, i64 0, i64 0), i8* %21, i32* %24)
  br label %26

26:                                               ; preds = %17
  %27 = load i32, i32* %5, align 4
  %28 = add nsw i32 %27, 1
  store i32 %28, i32* %5, align 4
  br label %13

29:                                               ; preds = %13
  store i32 0, i32* %5, align 4
  br label %30

30:                                               ; preds = %60, %29
  %31 = load i32, i32* %5, align 4
  %32 = load i32, i32* %2, align 4
  %33 = icmp slt i32 %31, %32
  br i1 %33, label %34, label %63

34:                                               ; preds = %30
  %35 = load i32, i32* %5, align 4
  %36 = sext i32 %35 to i64
  %37 = getelementptr inbounds [100 x i32], [100 x i32]* %3, i64 0, i64 %36
  %38 = load i32, i32* %37, align 4
  %39 = icmp sge i32 %38, 60
  br i1 %39, label %40, label %59

40:                                               ; preds = %34
  %41 = load i32, i32* %5, align 4
  %42 = sext i32 %41 to i64
  %43 = getelementptr inbounds [100 x i32], [100 x i32]* %3, i64 0, i64 %42
  %44 = load i32, i32* %43, align 4
  %45 = load i32, i32* %6, align 4
  %46 = sext i32 %45 to i64
  %47 = getelementptr inbounds [100 x i32], [100 x i32]* %4, i64 0, i64 %46
  store i32 %44, i32* %47, align 4
  %48 = load i32, i32* %6, align 4
  %49 = sext i32 %48 to i64
  %50 = getelementptr inbounds [100 x [10 x i8]], [100 x [10 x i8]]* %10, i64 0, i64 %49
  %51 = getelementptr inbounds [10 x i8], [10 x i8]* %50, i64 0, i64 0
  %52 = load i32, i32* %5, align 4
  %53 = sext i32 %52 to i64
  %54 = getelementptr inbounds [100 x [10 x i8]], [100 x [10 x i8]]* %9, i64 0, i64 %53
  %55 = getelementptr inbounds [10 x i8], [10 x i8]* %54, i64 0, i64 0
  %56 = call i8* @strcpy(i8* %51, i8* %55) #3
  %57 = load i32, i32* %6, align 4
  %58 = add nsw i32 %57, 1
  store i32 %58, i32* %6, align 4
  br label %59

59:                                               ; preds = %40, %34
  br label %60

60:                                               ; preds = %59
  %61 = load i32, i32* %5, align 4
  %62 = add nsw i32 %61, 1
  store i32 %62, i32* %5, align 4
  br label %30

63:                                               ; preds = %30
  store i32 0, i32* %7, align 4
  br label %64

64:                                               ; preds = %134, %63
  %65 = load i32, i32* %7, align 4
  %66 = load i32, i32* %6, align 4
  %67 = sub nsw i32 %66, 1
  %68 = icmp slt i32 %65, %67
  br i1 %68, label %69, label %137

69:                                               ; preds = %64
  store i32 0, i32* %5, align 4
  br label %70

70:                                               ; preds = %130, %69
  %71 = load i32, i32* %5, align 4
  %72 = load i32, i32* %6, align 4
  %73 = sub nsw i32 %72, 1
  %74 = load i32, i32* %7, align 4
  %75 = sub nsw i32 %73, %74
  %76 = icmp slt i32 %71, %75
  br i1 %76, label %77, label %133

77:                                               ; preds = %70
  %78 = load i32, i32* %5, align 4
  %79 = sext i32 %78 to i64
  %80 = getelementptr inbounds [100 x i32], [100 x i32]* %4, i64 0, i64 %79
  %81 = load i32, i32* %80, align 4
  %82 = load i32, i32* %5, align 4
  %83 = add nsw i32 %82, 1
  %84 = sext i32 %83 to i64
  %85 = getelementptr inbounds [100 x i32], [100 x i32]* %4, i64 0, i64 %84
  %86 = load i32, i32* %85, align 4
  %87 = icmp slt i32 %81, %86
  br i1 %87, label %88, label %129

88:                                               ; preds = %77
  %89 = load i32, i32* %5, align 4
  %90 = sext i32 %89 to i64
  %91 = getelementptr inbounds [100 x i32], [100 x i32]* %4, i64 0, i64 %90
  %92 = load i32, i32* %91, align 4
  store i32 %92, i32* %8, align 4
  %93 = load i32, i32* %5, align 4
  %94 = add nsw i32 %93, 1
  %95 = sext i32 %94 to i64
  %96 = getelementptr inbounds [100 x i32], [100 x i32]* %4, i64 0, i64 %95
  %97 = load i32, i32* %96, align 4
  %98 = load i32, i32* %5, align 4
  %99 = sext i32 %98 to i64
  %100 = getelementptr inbounds [100 x i32], [100 x i32]* %4, i64 0, i64 %99
  store i32 %97, i32* %100, align 4
  %101 = load i32, i32* %8, align 4
  %102 = load i32, i32* %5, align 4
  %103 = add nsw i32 %102, 1
  %104 = sext i32 %103 to i64
  %105 = getelementptr inbounds [100 x i32], [100 x i32]* %4, i64 0, i64 %104
  store i32 %101, i32* %105, align 4
  %106 = getelementptr inbounds [10 x i8], [10 x i8]* %11, i64 0, i64 0
  %107 = load i32, i32* %5, align 4
  %108 = sext i32 %107 to i64
  %109 = getelementptr inbounds [100 x [10 x i8]], [100 x [10 x i8]]* %10, i64 0, i64 %108
  %110 = getelementptr inbounds [10 x i8], [10 x i8]* %109, i64 0, i64 0
  %111 = call i8* @strcpy(i8* %106, i8* %110) #3
  %112 = load i32, i32* %5, align 4
  %113 = sext i32 %112 to i64
  %114 = getelementptr inbounds [100 x [10 x i8]], [100 x [10 x i8]]* %10, i64 0, i64 %113
  %115 = getelementptr inbounds [10 x i8], [10 x i8]* %114, i64 0, i64 0
  %116 = load i32, i32* %5, align 4
  %117 = add nsw i32 %116, 1
  %118 = sext i32 %117 to i64
  %119 = getelementptr inbounds [100 x [10 x i8]], [100 x [10 x i8]]* %10, i64 0, i64 %118
  %120 = getelementptr inbounds [10 x i8], [10 x i8]* %119, i64 0, i64 0
  %121 = call i8* @strcpy(i8* %115, i8* %120) #3
  %122 = load i32, i32* %5, align 4
  %123 = add nsw i32 %122, 1
  %124 = sext i32 %123 to i64
  %125 = getelementptr inbounds [100 x [10 x i8]], [100 x [10 x i8]]* %10, i64 0, i64 %124
  %126 = getelementptr inbounds [10 x i8], [10 x i8]* %125, i64 0, i64 0
  %127 = getelementptr inbounds [10 x i8], [10 x i8]* %11, i64 0, i64 0
  %128 = call i8* @strcpy(i8* %126, i8* %127) #3
  br label %129

129:                                              ; preds = %88, %77
  br label %130

130:                                              ; preds = %129
  %131 = load i32, i32* %5, align 4
  %132 = add nsw i32 %131, 1
  store i32 %132, i32* %5, align 4
  br label %70

133:                                              ; preds = %70
  br label %134

134:                                              ; preds = %133
  %135 = load i32, i32* %7, align 4
  %136 = add nsw i32 %135, 1
  store i32 %136, i32* %7, align 4
  br label %64

137:                                              ; preds = %64
  store i32 0, i32* %5, align 4
  br label %138

138:                                              ; preds = %161, %137
  %139 = load i32, i32* %5, align 4
  %140 = load i32, i32* %2, align 4
  %141 = icmp slt i32 %139, %140
  br i1 %141, label %142, label %164

142:                                              ; preds = %138
  %143 = load i32, i32* %5, align 4
  %144 = sext i32 %143 to i64
  %145 = getelementptr inbounds [100 x i32], [100 x i32]* %3, i64 0, i64 %144
  %146 = load i32, i32* %145, align 4
  %147 = icmp slt i32 %146, 60
  br i1 %147, label %148, label %160

148:                                              ; preds = %142
  %149 = load i32, i32* %6, align 4
  %150 = sext i32 %149 to i64
  %151 = getelementptr inbounds [100 x [10 x i8]], [100 x [10 x i8]]* %10, i64 0, i64 %150
  %152 = getelementptr inbounds [10 x i8], [10 x i8]* %151, i64 0, i64 0
  %153 = load i32, i32* %5, align 4
  %154 = sext i32 %153 to i64
  %155 = getelementptr inbounds [100 x [10 x i8]], [100 x [10 x i8]]* %9, i64 0, i64 %154
  %156 = getelementptr inbounds [10 x i8], [10 x i8]* %155, i64 0, i64 0
  %157 = call i8* @strcpy(i8* %152, i8* %156) #3
  %158 = load i32, i32* %6, align 4
  %159 = add nsw i32 %158, 1
  store i32 %159, i32* %6, align 4
  br label %160

160:                                              ; preds = %148, %142
  br label %161

161:                                              ; preds = %160
  %162 = load i32, i32* %5, align 4
  %163 = add nsw i32 %162, 1
  store i32 %163, i32* %5, align 4
  br label %138

164:                                              ; preds = %138
  store i32 0, i32* %5, align 4
  br label %165

165:                                              ; preds = %175, %164
  %166 = load i32, i32* %5, align 4
  %167 = load i32, i32* %6, align 4
  %168 = icmp slt i32 %166, %167
  br i1 %168, label %169, label %178

169:                                              ; preds = %165
  %170 = load i32, i32* %5, align 4
  %171 = sext i32 %170 to i64
  %172 = getelementptr inbounds [100 x [10 x i8]], [100 x [10 x i8]]* %10, i64 0, i64 %171
  %173 = getelementptr inbounds [10 x i8], [10 x i8]* %172, i64 0, i64 0
  %174 = call i32 (i8*, ...) @printf(i8* getelementptr inbounds ([4 x i8], [4 x i8]* @.str.2, i64 0, i64 0), i8* %173)
  br label %175

175:                                              ; preds = %169
  %176 = load i32, i32* %5, align 4
  %177 = add nsw i32 %176, 1
  store i32 %177, i32* %5, align 4
  br label %165

178:                                              ; preds = %165
  ret i32 0
}

declare dso_local i32 @__isoc99_scanf(i8*, ...) #1

; Function Attrs: nounwind
declare dso_local i8* @strcpy(i8*, i8*) #2

declare dso_local i32 @printf(i8*, ...) #1


!llvm.module.flags = !{!0}
!llvm.ident = !{!1}

!0 = !{i32 1, !"wchar_size", i32 4}
!1 = !{!"clang version 10.0.0-4ubuntu1 "}
